target datalayout = "e-m:e-p270:32:32-p271:32:32-p272:64:64-i64:64-i128:128-f80:128-n8:16:32:64-S128"
target triple = "x86_64-pc-linux-gnu"

; Function Attrs: inlinehint nounwind uwtable
define internal void @WebPUint32ToMem(ptr noundef %0, i32 noundef %1) #4 {
  %3 = alloca ptr, align 8
  %4 = alloca i32, align 4
  store ptr %0, ptr %3, align 8, !tbaa !16
  store i32 %1, ptr %4, align 4, !tbaa !9
  %5 = load ptr, ptr %3, align 8, !tbaa !16
  call void @llvm.memcpy.p0.p0.i64(ptr align 1 %5, ptr align 4 %4, i64 4, i1 false)
  ret void
}

; Function Attrs: nounwind uwtable
define internal void @HE4_C(ptr noundef %0) #0 {
  %2 = alloca ptr, align 8
  %3 = alloca i32, align 4
  %4 = alloca i32, align 4
  %5 = alloca i32, align 4
  %6 = alloca i32, align 4
  %7 = alloca i32, align 4
  store ptr %0, ptr %2, align 8, !tbaa !16
  call void @llvm.lifetime.start.p0(i64 4, ptr %3) #7
  %8 = load ptr, ptr %2, align 8, !tbaa !16
  %9 = getelementptr inbounds i8, ptr %8, i64 -33
  %10 = load i8, ptr %9, align 1, !tbaa !18
  %11 = zext i8 %10 to i32
  store i32 %11, ptr %3, align 4, !tbaa !9
  call void @llvm.lifetime.start.p0(i64 4, ptr %4) #7
  %12 = load ptr, ptr %2, align 8, !tbaa !16
  %13 = getelementptr inbounds i8, ptr %12, i64 -1
  %14 = load i8, ptr %13, align 1, !tbaa !18
  %15 = zext i8 %14 to i32
  store i32 %15, ptr %4, align 4, !tbaa !9
  call void @llvm.lifetime.start.p0(i64 4, ptr %5) #7
  %16 = load ptr, ptr %2, align 8, !tbaa !16
  %17 = getelementptr inbounds i8, ptr %16, i64 31
  %18 = load i8, ptr %17, align 1, !tbaa !18
  %19 = zext i8 %18 to i32
  store i32 %19, ptr %5, align 4, !tbaa !9
  call void @llvm.lifetime.start.p0(i64 4, ptr %6) #7
  %20 = load ptr, ptr %2, align 8, !tbaa !16
  %21 = getelementptr inbounds i8, ptr %20, i64 63
  %22 = load i8, ptr %21, align 1, !tbaa !18
  %23 = zext i8 %22 to i32
  store i32 %23, ptr %6, align 4, !tbaa !9
  call void @llvm.lifetime.start.p0(i64 4, ptr %7) #7
  %24 = load ptr, ptr %2, align 8, !tbaa !16
  %25 = getelementptr inbounds i8, ptr %24, i64 95
  %26 = load i8, ptr %25, align 1, !tbaa !18
  %27 = zext i8 %26 to i32
  store i32 %27, ptr %7, align 4, !tbaa !9
  %28 = load ptr, ptr %2, align 8, !tbaa !16
  %29 = getelementptr inbounds i8, ptr %28, i64 0
  %30 = load i32, ptr %3, align 4, !tbaa !9
  %31 = load i32, ptr %4, align 4, !tbaa !9
  %32 = mul nsw i32 2, %31
  %33 = add nsw i32 %30, %32
  %34 = load i32, ptr %5, align 4, !tbaa !9
  %35 = add nsw i32 %33, %34
  %36 = add nsw i32 %35, 2
  %37 = ashr i32 %36, 2
  %38 = trunc i32 %37 to i8
  %39 = zext i8 %38 to i32
  %40 = mul i32 16843009, %39
  call void @WebPUint32ToMem(ptr noundef %29, i32 noundef %40)
  %41 = load ptr, ptr %2, align 8, !tbaa !16
  %42 = getelementptr inbounds i8, ptr %41, i64 32
  %43 = load i32, ptr %4, align 4, !tbaa !9
  %44 = load i32, ptr %5, align 4, !tbaa !9
  %45 = mul nsw i32 2, %44
  %46 = add nsw i32 %43, %45
  %47 = load i32, ptr %6, align 4, !tbaa !9
  %48 = add nsw i32 %46, %47
  %49 = add nsw i32 %48, 2
  %50 = ashr i32 %49, 2
  %51 = trunc i32 %50 to i8
  %52 = zext i8 %51 to i32
  %53 = mul i32 16843009, %52
  call void @WebPUint32ToMem(ptr noundef %42, i32 noundef %53)
  %54 = load ptr, ptr %2, align 8, !tbaa !16
  %55 = getelementptr inbounds i8, ptr %54, i64 64
  %56 = load i32, ptr %5, align 4, !tbaa !9
  %57 = load i32, ptr %6, align 4, !tbaa !9
  %58 = mul nsw i32 2, %57
  %59 = add nsw i32 %56, %58
  %60 = load i32, ptr %7, align 4, !tbaa !9
  %61 = add nsw i32 %59, %60
  %62 = add nsw i32 %61, 2
  %63 = ashr i32 %62, 2
  %64 = trunc i32 %63 to i8
  %65 = zext i8 %64 to i32
  %66 = mul i32 16843009, %65
  call void @WebPUint32ToMem(ptr noundef %55, i32 noundef %66)
  %67 = load ptr, ptr %2, align 8, !tbaa !16
  %68 = getelementptr inbounds i8, ptr %67, i64 96
  %69 = load i32, ptr %6, align 4, !tbaa !9
  %70 = load i32, ptr %7, align 4, !tbaa !9
  %71 = mul nsw i32 2, %70
  %72 = add nsw i32 %69, %71
  %73 = load i32, ptr %7, align 4, !tbaa !9
  %74 = add nsw i32 %72, %73
  %75 = add nsw i32 %74, 2
  %76 = ashr i32 %75, 2
  %77 = trunc i32 %76 to i8
  %78 = zext i8 %77 to i32
  %79 = mul i32 16843009, %78
  call void @WebPUint32ToMem(ptr noundef %68, i32 noundef %79)
  call void @llvm.lifetime.end.p0(i64 4, ptr %7) #7
  call void @llvm.lifetime.end.p0(i64 4, ptr %6) #7
  call void @llvm.lifetime.end.p0(i64 4, ptr %5) #7
  call void @llvm.lifetime.end.p0(i64 4, ptr %4) #7
  call void @llvm.lifetime.end.p0(i64 4, ptr %3) #7
  ret void
}