; Function Attrs: mustprogress nofree norecurse nosync nounwind willreturn memory(argmem: readwrite) uwtable
define internal void @HE4_C(ptr noundef captures(none) initializes((0, 4), (32, 36), (64, 68), (96, 100)) %0) #4 {
  %2 = getelementptr inbounds i8, ptr %0, i64 -33
  %3 = load i8, ptr %2, align 1, !tbaa !14
  %4 = zext i8 %3 to i32
  %5 = getelementptr inbounds i8, ptr %0, i64 -1
  %6 = load i8, ptr %5, align 1, !tbaa !14
  %7 = zext i8 %6 to i32
  %8 = getelementptr inbounds nuw i8, ptr %0, i64 31
  %9 = load i8, ptr %8, align 1, !tbaa !14
  %10 = zext i8 %9 to i32
  %11 = getelementptr inbounds nuw i8, ptr %0, i64 63
  %12 = load i8, ptr %11, align 1, !tbaa !14
  %13 = zext i8 %12 to i32
  %14 = getelementptr inbounds nuw i8, ptr %0, i64 95
  %15 = load i8, ptr %14, align 1, !tbaa !14
  %16 = zext i8 %15 to i32
  %17 = shl nuw nsw i32 %7, 1
  %18 = add nuw nsw i32 %10, 2
  %19 = add nuw nsw i32 %18, %4
  %20 = add nuw nsw i32 %19, %17
  %21 = lshr i32 %20, 2
  %22 = mul nuw i32 %21, 16843009
  store i32 %22, ptr %0, align 1
  %23 = getelementptr inbounds nuw i8, ptr %0, i64 32
  %24 = shl nuw nsw i32 %10, 1
  %25 = add nuw nsw i32 %13, 2
  %26 = add nuw nsw i32 %25, %7
  %27 = add nuw nsw i32 %26, %24
  %28 = lshr i32 %27, 2
  %29 = mul nuw i32 %28, 16843009
  store i32 %29, ptr %23, align 1
  %30 = getelementptr inbounds nuw i8, ptr %0, i64 64
  %31 = shl nuw nsw i32 %13, 1
  %32 = add nuw nsw i32 %18, %31
  %33 = add nuw nsw i32 %32, %16
  %34 = lshr i32 %33, 2
  %35 = mul nuw i32 %34, 16843009
  store i32 %35, ptr %30, align 1
  %36 = getelementptr inbounds nuw i8, ptr %0, i64 96
  %37 = shl nuw nsw i32 %16, 1
  %38 = add nuw nsw i32 %25, %16
  %39 = add nuw nsw i32 %38, %37
  %40 = lshr i32 %39, 2
  %41 = mul nuw i32 %40, 16843009
  store i32 %41, ptr %36, align 1
  ret void
}